; Function Attrs: nounwind uwtable
define ptr @l_Lean_Elab_Tactic_expandOptLocation(ptr noundef %0) local_unnamed_addr #0 {
  %2 = tail call zeroext i8 @l_Lean_Syntax_isNone(ptr noundef %0) #4
  %3 = icmp eq i8 %2, 0
  br i1 %3, label %4, label %16

4:                                                ; preds = %1
  %5 = tail call ptr @l_Lean_Syntax_getArg(ptr noundef %0, ptr noundef nonnull inttoptr (i64 1 to ptr)) #4
  %6 = tail call ptr @l_Lean_Elab_Tactic_expandLocation(ptr noundef %5)
  %7 = ptrtoint ptr %5 to i64
  %8 = and i64 %7, 1
  %.not = icmp eq i64 %8, 0
  br i1 %.not, label %9, label %lean_dec.exit

9:                                                ; preds = %4
  %10 = load i32, ptr %5, align 4, !tbaa !8
  %11 = icmp sgt i32 %10, 1
  br i1 %11, label %12, label %14, !prof !11

12:                                               ; preds = %9
  %13 = add nsw i32 %10, -1
  store i32 %13, ptr %5, align 4, !tbaa !8
  br label %lean_dec.exit

14:                                               ; preds = %9
  %.not.i = icmp eq i32 %10, 0
  br i1 %.not.i, label %lean_dec.exit, label %15

15:                                               ; preds = %14
  tail call void @lean_dec_ref_cold(ptr noundef nonnull %5) #4
  br label %lean_dec.exit

16:                                               ; preds = %1
  %17 = load ptr, ptr @l_Lean_Elab_Tactic_expandOptLocation___closed__1, align 8, !tbaa !4
  br label %lean_dec.exit

lean_dec.exit:                                    ; preds = %4, %12, %14, %15, %16
  %.0 = phi ptr [ %17, %16 ], [ %6, %15 ], [ %6, %14 ], [ %6, %12 ], [ %6, %4 ]
  ret ptr %.0
}